-----BEGIN CERTIFICATE-----
MIIENzCCAx+gAwIBAgIJAL1zjlGcyEryMA0GCSqGSIb3DQEBCwUAMIGxMQswCQYD
VQQGEwJVUzETMBEGA1UECAwKQ2FsaWZvcm5pYTESMBAGA1UEBwwJU2FuIEJydW5v
MSEwHwYDVQQKDBhJTlNFQ1VSRSBZT1VUVUJFIFRFU1QgQ0ExGDAWBgNVBAsMD1lv
dVR1YmUgVXBsb2FkczEYMBYGA1UEAwwPWW91VHViZSBVcGxvYWRzMSIwIAYJKoZI
hvcNAQkBFhNkcGVtbW9uc0Bnb29nbGUuY29tMB4XDTE3MDcxMTE5MDc0M1oXDTIw
MDQzMDE5MDc0M1owgbExCzAJBgNVBAYTAlVTMRMwEQYDVQQIDApDYWxpZm9ybmlh
MRIwEAYDVQQHDAlTYW4gQnJ1bm8xITAfBgNVBAoMGElOU0VDVVJFIFlPVVRVQkUg
VEVTVCBDQTEYMBYGA1UECwwPWW91VHViZSBVcGxvYWRzMRgwFgYDVQQDDA9Zb3VU
dWJlIFVwbG9hZHMxIjAgBgkqhkiG9w0BCQEWE2RwZW1tb25zQGdvb2dsZS5jb20w
ggEiMA0GCSqGSIb3DQEBAQUAA4IBDwAwggEKAoIBAQC40UyDyIlduLelQB94PLKg
xDw13YRGhkrgPdE2baBexHC66PoNQ220lIrd18bfi2Bd2u7zxIKzuXWhSKYepvwA
tRXhLrVm4LXUnWmMJI2usETjJhkZfMomJIi9Ih43GPVs/vw1clMBCUMacJlNw3Yc
qnpGpvkIwBaZNltZJTzP2ZwCIIqZTDG06wxE+XZHioDKELj4AUL2UXm1ZPnZ9XYr
eBk/qZH7CKbZN28pLqHB6A/lU9Y3Lnd/iP+h5zwbZkd69/aKSpwz+Az7k+pqOk9z
6aPfyMRQUxQ0/BytDEVoikf6fUqVze1FMzqTnCH9xO+o17UpXp6UMtCmSZGWEusz
AgMBAAGjUDBOMB0GA1UdDgQWBBQezEc6cdB2nLjVP4sB8NZ5iI7lozAfBgNVHSME
GDAWgBQezEc6cdB2nLjVP4sB8NZ5iI7lozAMBgNVHRMEBTADAQH/MA0GCSqGSIb3
DQEBCwUAA4IBAQA0J8+uod7jeydB4zfMbx5AsTQAStaa4biME7nWyDzTZEqRiF2p
mfLrAJQB6aUqn37dNOt7L1pIcMww8Pymf+ie7Mdgaofeul03CtYXVsQe3xkUe1eo
vwMz1TfM0U3VhLPH9g2IjKCxBYy7VBhVmriVmej07b4WBbOZQkLXnYISQeExqDPj
hPcU2GpjcRSVHOoBqO/1TnlCaMyAjCDaLe+JKzf6NEFTnISruPG1BdSPDlr8rSmq
sgKVhF49JdIIA+u3KkkzH6dv++m9ACg3KoIfFfrVJKFgLcRd96Y2rRkiNB7DhKYM
aLHe+3ymApA0dDxBamInr+MubA9HIqinBs0E
-----END CERTIFICATE-----
Certificate:
    Data:
        Version: 3 (0x2)
        Serial Number: 13651411376663972594 (0xbd738e519cc84af2)
    Signature Algorithm: sha256WithRSAEncryption
        Issuer: C=US, ST=California, L=San Bruno, O=INSECURE YOUTUBE TEST CA, OU=YouTube Uploads, CN=YouTube Uploads/emailAddress=dpemmons@google.com
        Validity
            Not Before: Jul 11 19:07:43 2017 GMT
            Not After : Apr 30 19:07:43 2020 GMT
        Subject: C=US, ST=California, L=San Bruno, O=INSECURE YOUTUBE TEST CA, OU=YouTube Uploads, CN=YouTube Uploads/emailAddress=dpemmons@google.com
        Subject Public Key Info:
            Public Key Algorithm: rsaEncryption
                Public-Key: (2048 bit)
                Modulus:
                    00:b8:d1:4c:83:c8:89:5d:b8:b7:a5:40:1f:78:3c:
                    b2:a0:c4:3c:35:dd:84:46:86:4a:e0:3d:d1:36:6d:
                    a0:5e:c4:70:ba:e8:fa:0d:43:6d:b4:94:8a:dd:d7:
                    c6:df:8b:60:5d:da:ee:f3:c4:82:b3:b9:75:a1:48:
                    a6:1e:a6:fc:00:b5:15:e1:2e:b5:66:e0:b5:d4:9d:
                    69:8c:24:8d:ae:b0:44:e3:26:19:19:7c:ca:26:24:
                    88:bd:22:1e:37:18:f5:6c:fe:fc:35:72:53:01:09:
                    43:1a:70:99:4d:c3:76:1c:aa:7a:46:a6:f9:08:c0:
                    16:99:36:5b:59:25:3c:cf:d9:9c:02:20:8a:99:4c:
                    31:b4:eb:0c:44:f9:76:47:8a:80:ca:10:b8:f8:01:
                    42:f6:51:79:b5:64:f9:d9:f5:76:2b:78:19:3f:a9:
                    91:fb:08:a6:d9:37:6f:29:2e:a1:c1:e8:0f:e5:53:
                    d6:37:2e:77:7f:88:ff:a1:e7:3c:1b:66:47:7a:f7:
                    f6:8a:4a:9c:33:f8:0c:fb:93:ea:6a:3a:4f:73:e9:
                    a3:df:c8:c4:50:53:14:34:fc:1c:ad:0c:45:68:8a:
                    47:fa:7d:4a:95:cd:ed:45:33:3a:93:9c:21:fd:c4:
                    ef:a8:d7:b5:29:5e:9e:94:32:d0:a6:49:91:96:12:
                    eb:33
                Exponent: 65537 (0x10001)
        X509v3 extensions:
            X509v3 Subject Key Identifier: 
                1E:CC:47:3A:71:D0:76:9C:B8:D5:3F:8B:01:F0:D6:79:88:8E:E5:A3
            X509v3 Authority Key Identifier: 
                keyid:1E:CC:47:3A:71:D0:76:9C:B8:D5:3F:8B:01:F0:D6:79:88:8E:E5:A3

            X509v3 Basic Constraints: 
                CA:TRUE
    Signature Algorithm: sha256WithRSAEncryption
         34:27:cf:ae:a1:de:e3:7b:27:41:e3:37:cc:6f:1e:40:b1:34:
         00:4a:d6:9a:e1:b8:8c:13:b9:d6:c8:3c:d3:64:4a:91:88:5d:
         a9:99:f2:eb:00:94:01:e9:a5:2a:9f:7e:dd:34:eb:7b:2f:5a:
         48:70:cc:30:f0:fc:a6:7f:e8:9e:ec:c7:60:6a:87:de:ba:5d:
         37:0a:d6:17:56:c4:1e:df:19:14:7b:57:a8:bf:03:33:d5:37:
         cc:d1:4d:d5:84:b3:c7:f6:0d:88:8c:a0:b1:05:8c:bb:54:18:
         55:9a:b8:95:99:e8:f4:ed:be:16:05:b3:99:42:42:d7:9d:82:
         12:41:e1:31:a8:33:e3:84:f7:14:d8:6a:63:71:14:95:1c:ea:
         01:a8:ef:f5:4e:79:42:68:cc:80:8c:20:da:2d:ef:89:2b:37:
         fa:34:41:53:9c:84:ab:b8:f1:b5:05:d4:8f:0e:5a:fc:ad:29:
         aa:b2:02:95:84:5e:3d:25:d2:08:03:eb:b7:2a:49:33:1f:a7:
         6f:fb:e9:bd:00:28:37:2a:82:1f:15:fa:d5:24:a1:60:2d:c4:
         5d:f7:a6:36:ad:19:22:34:1e:c3:84:a6:0c:68:b1:de:fb:7c:
         a6:02:90:34:74:3c:41:6a:62:27:af:e3:2e:6c:0f:47:22:a8:
         a7:06:cd:04
