Certificate:
    Data:
        Version: 3 (0x2)
        Serial Number: 2 (0x2)
    Signature Algorithm: sha256WithRSAEncryption
        Issuer: O=Acme Co, CN=Root CA
        Validity
            Not Before: Jan  1 10:00:00 2013 GMT
            Not After : Dec 31 10:00:00 2023 GMT
        Subject: O=Acme Co, CN=Intermediate CA
        Subject Public Key Info:
            Public Key Algorithm: rsaEncryption
                Public-Key: (2048 bit)
                Modulus:
                    00:cd:35:50:e7:0a:68:80:e5:2b:f0:01:2b:93:11:
                    0c:50:f7:23:e1:d8:d2:ed:48:9a:ea:3b:64:9f:82:
                    fa:e4:ad:23:96:a8:a1:9b:31:d1:d6:4a:b2:79:f1:
                    c1:80:03:18:41:54:a5:30:3a:82:bd:57:10:9c:fd:
                    5d:34:fd:19:d3:21:1b:cb:06:e7:66:40:e1:27:89:
                    98:82:2d:d7:2e:0d:5c:05:9a:74:0d:45:de:32:5e:
                    78:4e:81:b4:c8:60:97:f0:8b:2a:8c:e0:57:f6:b9:
                    db:5a:53:64:1d:27:e0:93:47:d9:93:ee:ac:f6:7b:
                    e7:d2:97:b1:a6:85:37:75:ff:aa:f7:8f:ae:92:4e:
                    30:0b:56:54:fd:32:f9:9d:3c:d8:2e:95:f5:64:17:
                    ff:26:d2:65:e2:b1:78:6c:83:5d:67:a4:d8:ae:89:
                    6b:6e:b3:4b:35:a5:b1:03:3c:20:97:79:ed:0b:f8:
                    de:25:a1:3a:50:70:40:ae:9e:04:75:a2:6a:2f:15:
                    84:5b:08:c3:e0:55:4e:47:db:bc:79:25:b0:2e:58:
                    0d:bc:aa:a6:f2:ee:cd:e6:b8:02:8c:5b:00:b3:3d:
                    44:d0:a6:bf:b3:e7:2e:9d:46:70:de:45:d1:bd:79:
                    bd:c0:f2:47:0b:71:28:60:91:c2:98:73:15:2d:b4:
                    b1:f3
                Exponent: 65537 (0x10001)
        X509v3 extensions:
            X509v3 Key Usage: critical
                Certificate Sign
            X509v3 Extended Key Usage: 
                TLS Web Server Authentication
            X509v3 Basic Constraints: critical
                CA:TRUE
    Signature Algorithm: sha256WithRSAEncryption
         bc:4f:82:34:86:05:58:dd:40:4a:62:64:03:81:9b:fc:75:90:
         29:d6:25:a0:02:14:3e:75:eb:db:28:98:d1:be:fd:d3:26:c3:
         4b:14:dc:35:07:d7:32:bb:29:af:7e:6a:f3:15:52:db:53:05:
         2a:2b:e0:d9:50:ef:ee:5e:0f:69:93:04:23:16:11:ed:8b:f7:
         3a:6f:21:6a:90:4c:6c:2f:1a:21:86:d1:ed:08:a8:00:5a:79:
         14:39:4d:71:e7:d4:b6:43:c8:08:f8:63:65:c5:fe:ca:d8:b5:
         29:34:2d:3b:3f:03:44:71:26:d2:78:d7:5b:1d:ab:3e:d5:3f:
         23:e3:6e:9b:3d:69:5f:28:72:79:16:e5:ee:56:ce:22:d3:87:
         c8:1f:05:91:9b:2a:37:bd:49:81:eb:67:d9:f5:7b:70:72:28:
         5d:bb:b6:1f:48:b6:b1:47:68:c0:69:a0:92:aa:d5:a0:94:cf:
         29:5d:af:d2:3c:a0:08:f8:9a:5f:5a:b3:7a:56:e5:f6:8d:f4:
         50:91:c7:cb:85:57:46:77:12:70:87:a2:88:7b:a3:ba:a6:d4:
         fc:43:6c:6e:40:40:88:5e:81:62:1d:38:97:4f:0c:7f:0d:79:
         24:18:c5:ad:eb:b1:0e:92:a1:65:f8:d7:9b:16:96:17:ff:57:
         5c:0d:4a:85
-----BEGIN CERTIFICATE-----
MIIDAzCCAeugAwIBAgIBAjANBgkqhkiG9w0BAQsFADAkMRAwDgYDVQQKEwdBY21l
IENvMRAwDgYDVQQDEwdSb290IENBMB4XDTEzMDEwMTEwMDAwMFoXDTIzMTIzMTEw
MDAwMFowLDEQMA4GA1UEChMHQWNtZSBDbzEYMBYGA1UEAxMPSW50ZXJtZWRpYXRl
IENBMIIBIjANBgkqhkiG9w0BAQEFAAOCAQ8AMIIBCgKCAQEAzTVQ5wpogOUr8AEr
kxEMUPcj4djS7Uia6jtkn4L65K0jlqihmzHR1kqyefHBgAMYQVSlMDqCvVcQnP1d
NP0Z0yEbywbnZkDhJ4mYgi3XLg1cBZp0DUXeMl54ToG0yGCX8IsqjOBX9rnbWlNk
HSfgk0fZk+6s9nvn0pexpoU3df+q94+ukk4wC1ZU/TL5nTzYLpX1ZBf/JtJl4rF4
bINdZ6TYrolrbrNLNaWxAzwgl3ntC/jeJaE6UHBArp4EdaJqLxWEWwjD4FVOR9u8
eSWwLlgNvKqm8u7N5rgCjFsAsz1E0Ka/s+cunUZw3kXRvXm9wPJHC3EoYJHCmHMV
LbSx8wIDAQABozgwNjAOBgNVHQ8BAf8EBAMCAgQwEwYDVR0lBAwwCgYIKwYBBQUH
AwEwDwYDVR0TAQH/BAUwAwEB/zANBgkqhkiG9w0BAQsFAAOCAQEAvE+CNIYFWN1A
SmJkA4Gb/HWQKdYloAIUPnXr2yiY0b790ybDSxTcNQfXMrspr35q8xVS21MFKivg
2VDv7l4PaZMEIxYR7Yv3Om8hapBMbC8aIYbR7QioAFp5FDlNcefUtkPICPhjZcX+
yti1KTQtOz8DRHEm0njXWx2rPtU/I+Numz1pXyhyeRbl7lbOItOHyB8FkZsqN71J
getn2fV7cHIoXbu2H0i2sUdowGmgkqrVoJTPKV2v0jygCPiaX1qzelbl9o30UJHH
y4VXRncScIeiiHujuqbU/ENsbkBAiF6BYh04l08Mfw15JBjFreuxDpKhZfjXmxaW
F/9XXA1KhQ==
-----END CERTIFICATE-----
