Certificate:
    Data:
        Version: 3 (0x2)
        Serial Number: 1 (0x1)
    Signature Algorithm: sha256WithRSAEncryption
        Issuer: O=Acme Co, CN=Root CA
        Validity
            Not Before: Jan  1 10:00:00 2013 GMT
            Not After : Dec 31 10:00:00 2023 GMT
        Subject: O=Acme Co, CN=Root CA
        Subject Public Key Info:
            Public Key Algorithm: rsaEncryption
                Public-Key: (2048 bit)
                Modulus:
                    00:e4:2b:91:c7:7d:ab:32:b7:38:e1:38:ae:c8:b9:
                    0b:15:1c:64:76:47:84:5d:cb:e7:e7:0c:30:77:84:
                    6a:8e:75:95:42:b2:78:c8:88:10:ac:98:47:97:38:
                    d1:3a:7f:86:0d:20:f1:1d:70:84:a2:9d:ed:1a:28:
                    af:5e:43:dd:31:a3:bb:b8:5c:c4:83:79:b8:83:9a:
                    e7:a9:63:04:59:93:b6:26:67:2d:dd:e6:2d:bb:e4:
                    13:eb:d5:17:0b:de:63:46:76:6f:10:05:40:b0:16:
                    fc:ea:f4:97:1c:d6:dc:fe:37:72:d5:40:df:e3:b4:
                    d5:ac:cf:c9:ae:7c:21:49:01:1e:7e:d4:c1:e1:2a:
                    11:01:b4:70:3a:31:3d:9a:33:b7:7f:20:f2:8b:e7:
                    54:8e:06:f2:4b:5f:f0:e2:b9:8f:64:1f:50:bd:b3:
                    a5:ac:69:44:42:6c:12:e9:11:9d:74:b4:49:77:e3:
                    0f:8b:9c:94:53:17:0c:23:ba:61:fa:70:3d:93:8d:
                    ad:5f:dd:4f:32:84:5b:07:50:e4:58:c7:00:45:82:
                    1f:21:14:4c:bf:43:92:76:fb:24:09:33:df:58:8d:
                    be:87:ee:b5:54:e4:d3:32:f6:b1:2d:69:74:86:ad:
                    1f:57:7e:9b:05:11:74:b5:c4:68:ac:9a:80:74:7a:
                    34:89
                Exponent: 65537 (0x10001)
        X509v3 extensions:
            X509v3 Key Usage: critical
                Certificate Sign
            X509v3 Extended Key Usage: 
                TLS Web Server Authentication
            X509v3 Basic Constraints: critical
                CA:TRUE
    Signature Algorithm: sha256WithRSAEncryption
         5b:77:09:e9:b4:30:11:a5:63:53:82:f0:ac:3d:8f:6f:99:5c:
         1f:ab:a8:6b:1e:c9:49:fe:de:ef:3f:64:f4:94:5e:7f:97:81:
         cc:2b:e5:ee:b8:38:38:bf:f5:a5:d4:b5:56:10:7d:31:9a:3c:
         a9:c6:9c:ec:0b:86:2f:f4:46:a9:6b:14:d2:ab:00:85:85:0f:
         6d:f3:1e:96:6e:f2:63:2d:56:b0:13:39:f4:f7:6a:60:85:a2:
         a1:ca:b6:04:88:8c:b5:64:3c:20:fe:84:30:45:04:24:69:23:
         21:2f:a2:36:20:75:f9:ff:04:01:26:94:3c:52:d5:cb:88:5f:
         c5:1b:5e:d8:e9:77:69:18:ad:70:99:15:e0:7d:f6:06:5d:64:
         57:0e:fd:a3:0e:8c:df:41:bb:34:e4:3c:76:43:30:c8:be:64:
         d3:89:21:d7:cc:9a:74:db:2a:c4:27:d6:a9:f6:df:f9:85:0a:
         35:6f:2a:d1:d6:25:f9:dd:22:0d:f0:e0:d0:b9:ca:2c:df:80:
         e4:e6:2b:ac:8e:76:2f:61:64:ae:24:ab:ca:93:23:2d:e6:e0:
         65:f9:9c:bc:3e:48:6a:bb:97:ef:33:1e:c2:25:2c:75:70:8d:
         a3:51:b0:33:a9:5d:e3:90:2c:71:11:36:c4:76:fe:fc:5e:93:
         ca:40:a3:8a
-----BEGIN CERTIFICATE-----
MIIC+zCCAeOgAwIBAgIBATANBgkqhkiG9w0BAQsFADAkMRAwDgYDVQQKEwdBY21l
IENvMRAwDgYDVQQDEwdSb290IENBMB4XDTEzMDEwMTEwMDAwMFoXDTIzMTIzMTEw
MDAwMFowJDEQMA4GA1UEChMHQWNtZSBDbzEQMA4GA1UEAxMHUm9vdCBDQTCCASIw
DQYJKoZIhvcNAQEBBQADggEPADCCAQoCggEBAOQrkcd9qzK3OOE4rsi5CxUcZHZH
hF3L5+cMMHeEao51lUKyeMiIEKyYR5c40Tp/hg0g8R1whKKd7Roor15D3TGju7hc
xIN5uIOa56ljBFmTtiZnLd3mLbvkE+vVFwveY0Z2bxAFQLAW/Or0lxzW3P43ctVA
3+O01azPya58IUkBHn7UweEqEQG0cDoxPZozt38g8ovnVI4G8ktf8OK5j2QfUL2z
paxpREJsEukRnXS0SXfjD4uclFMXDCO6YfpwPZONrV/dTzKEWwdQ5FjHAEWCHyEU
TL9Dknb7JAkz31iNvofutVTk0zL2sS1pdIatH1d+mwURdLXEaKyagHR6NIkCAwEA
AaM4MDYwDgYDVR0PAQH/BAQDAgIEMBMGA1UdJQQMMAoGCCsGAQUFBwMBMA8GA1Ud
EwEB/wQFMAMBAf8wDQYJKoZIhvcNAQELBQADggEBAFt3Cem0MBGlY1OC8Kw9j2+Z
XB+rqGseyUn+3u8/ZPSUXn+Xgcwr5e64ODi/9aXUtVYQfTGaPKnGnOwLhi/0Rqlr
FNKrAIWFD23zHpZu8mMtVrATOfT3amCFoqHKtgSIjLVkPCD+hDBFBCRpIyEvojYg
dfn/BAEmlDxS1cuIX8UbXtjpd2kYrXCZFeB99gZdZFcO/aMOjN9BuzTkPHZDMMi+
ZNOJIdfMmnTbKsQn1qn23/mFCjVvKtHWJfndIg3w4NC5yizfgOTmK6yOdi9hZK4k
q8qTIy3m4GX5nLw+SGq7l+8zHsIlLHVwjaNRsDOpXeOQLHERNsR2/vxek8pAo4o=
-----END CERTIFICATE-----
