Certificate:
    Data:
        Version: 3 (0x2)
        Serial Number: 3 (0x3)
    Signature Algorithm: sha256WithRSAEncryption
        Issuer: O=Acme Co, CN=Intermediate CA
        Validity
            Not Before: Jan  1 10:00:00 2013 GMT
            Not After : Dec 31 10:00:00 2023 GMT
        Subject: O=Acme Co, CN=test.example.com
        Subject Public Key Info:
            Public Key Algorithm: rsaEncryption
                Public-Key: (2048 bit)
                Modulus:
                    00:d5:ca:19:79:8e:a9:ab:46:f0:4e:b7:58:6d:b3:
                    a3:9a:68:10:52:af:f0:00:94:ae:34:bd:b4:50:1f:
                    a3:26:a4:9e:1c:90:37:5b:3d:e8:d7:3b:bc:93:fb:
                    00:fb:c7:49:54:9b:f1:d0:9a:f2:51:84:7b:59:8b:
                    bd:66:f3:ae:92:5a:b9:63:8c:64:a7:d0:9e:e3:0c:
                    50:d2:cf:93:9d:e9:4a:11:57:93:c1:de:af:7b:5a:
                    44:1d:0a:8c:22:a6:1d:c6:ad:e9:8f:16:8d:4e:91:
                    f1:d3:f1:f3:82:fe:f6:55:dc:72:f1:11:07:75:ec:
                    bb:e9:3a:35:87:43:81:5e:dc:43:4a:b7:7c:a1:1a:
                    d5:d2:c1:40:39:69:7d:89:ad:64:1b:31:34:a8:ea:
                    9e:5e:26:fc:71:d2:c6:6b:e5:c2:73:30:3f:59:a7:
                    35:8d:a9:a5:e9:3d:43:41:bd:54:f2:2a:e1:15:0c:
                    35:30:6b:8b:f2:77:ca:5c:07:8f:58:f4:54:77:5e:
                    af:ce:b1:c1:2b:a7:bb:c0:e9:7d:ef:1a:d7:03:ee:
                    8f:67:ad:c6:e6:1d:a9:e7:91:3f:41:e7:d6:86:20:
                    8c:53:b3:d8:79:09:e2:4b:15:5a:d8:92:3b:62:4f:
                    68:e4:cb:d0:a4:4e:b6:7d:3e:5f:b0:24:ea:62:61:
                    cf:7b
                Exponent: 65537 (0x10001)
        X509v3 extensions:
            X509v3 Key Usage: critical
                Digital Signature, Key Encipherment
            X509v3 Extended Key Usage: 
                TLS Web Server Authentication
            X509v3 Basic Constraints: critical
                CA:FALSE
            X509v3 Subject Alternative Name: 
                DNS:test.example.com
    Signature Algorithm: sha256WithRSAEncryption
         00:94:9d:9a:b6:e6:89:9e:81:9e:b0:97:14:7b:14:a4:b5:95:
         ce:97:3b:ca:44:37:f8:1d:96:eb:1c:33:ed:5f:23:3a:23:6a:
         93:ab:ad:06:30:99:63:bb:1b:6e:c9:1e:26:e4:f8:5d:6b:4b:
         ea:38:93:b1:25:c0:b6:3b:51:52:50:cc:12:ae:a0:5d:b1:c7:
         e6:66:f3:d4:72:d5:a1:3e:6e:a0:d1:ae:e5:dd:14:4b:8c:2f:
         d6:22:03:aa:bc:70:6d:a8:09:24:7b:09:6c:84:40:58:ec:37:
         cb:86:a4:07:b2:d9:91:f8:9a:59:46:d5:1c:97:1f:c4:a1:9a:
         97:78:15:84:9c:fb:3c:d5:a9:f2:7a:c5:20:41:a7:15:18:d7:
         cc:e0:e6:92:88:19:a2:7d:2b:90:4c:a6:2d:ee:02:a2:0b:0f:
         cf:30:ce:53:92:7d:aa:28:be:21:83:19:db:c6:11:f5:a3:62:
         30:87:1a:6b:af:4f:5a:6b:a6:88:9a:21:e6:7f:03:49:9e:4c:
         23:6f:15:c4:33:62:c2:54:4a:a3:b4:5e:21:6e:f9:61:8a:1b:
         03:ea:75:fe:47:0b:ac:f6:36:28:c1:8e:60:3a:2d:a1:ab:5c:
         eb:70:46:88:c2:bc:52:53:01:98:45:28:af:cd:58:79:63:b8:
         9b:c8:7d:df
-----BEGIN CERTIFICATE-----
MIIDJjCCAg6gAwIBAgIBAzANBgkqhkiG9w0BAQsFADAsMRAwDgYDVQQKEwdBY21l
IENvMRgwFgYDVQQDEw9JbnRlcm1lZGlhdGUgQ0EwHhcNMTMwMTAxMTAwMDAwWhcN
MjMxMjMxMTAwMDAwWjAtMRAwDgYDVQQKEwdBY21lIENvMRkwFwYDVQQDExB0ZXN0
LmV4YW1wbGUuY29tMIIBIjANBgkqhkiG9w0BAQEFAAOCAQ8AMIIBCgKCAQEA1coZ
eY6pq0bwTrdYbbOjmmgQUq/wAJSuNL20UB+jJqSeHJA3Wz3o1zu8k/sA+8dJVJvx
0JryUYR7WYu9ZvOuklq5Y4xkp9Ce4wxQ0s+TnelKEVeTwd6ve1pEHQqMIqYdxq3p
jxaNTpHx0/Hzgv72Vdxy8REHdey76To1h0OBXtxDSrd8oRrV0sFAOWl9ia1kGzE0
qOqeXib8cdLGa+XCczA/Wac1jaml6T1DQb1U8irhFQw1MGuL8nfKXAePWPRUd16v
zrHBK6e7wOl97xrXA+6PZ63G5h2p55E/QefWhiCMU7PYeQniSxVa2JI7Yk9o5MvQ
pE62fT5fsCTqYmHPewIDAQABo1IwUDAOBgNVHQ8BAf8EBAMCBaAwEwYDVR0lBAww
CgYIKwYBBQUHAwEwDAYDVR0TAQH/BAIwADAbBgNVHREEFDASghB0ZXN0LmV4YW1w
bGUuY29tMA0GCSqGSIb3DQEBCwUAA4IBAQAAlJ2atuaJnoGesJcUexSktZXOlzvK
RDf4HZbrHDPtXyM6I2qTq60GMJljuxtuyR4m5Phda0vqOJOxJcC2O1FSUMwSrqBd
scfmZvPUctWhPm6g0a7l3RRLjC/WIgOqvHBtqAkkewlshEBY7DfLhqQHstmR+JpZ
RtUclx/EoZqXeBWEnPs81anyesUgQacVGNfM4OaSiBmifSuQTKYt7gKiCw/PMM5T
kn2qKL4hgxnbxhH1o2Iwhxprr09aa6aImiHmfwNJnkwjbxXEM2LCVEqjtF4hbvlh
ihsD6nX+Rwus9jYowY5gOi2hq1zrcEaIwrxSUwGYRSivzVh5Y7ibyH3f
-----END CERTIFICATE-----
